; Function Attrs: mustprogress uwtable
define hidden noundef nonnull align 8 dereferenceable(8) ptr @_ZN2pblsERSoRKNS_10constraintE(ptr noundef nonnull align 8 dereferenceable(8) %0, ptr noundef nonnull align 8 dereferenceable(64) %1) local_unnamed_addr #3 {
  %3 = getelementptr inbounds nuw i8, ptr %1, i64 16
  %.sroa.0.0.copyload.i = load i32, ptr %3, align 8, !tbaa !3
  %.not = icmp eq i32 %.sroa.0.0.copyload.i, -2
  br i1 %.not, label %12, label %_ZN3satlsERSoNS_7literalE.exit

_ZN3satlsERSoNS_7literalE.exit:                   ; preds = %2
  %4 = and i32 %.sroa.0.0.copyload.i, 1
  %.not.not.i = icmp eq i32 %4, 0
  %5 = select i1 %.not.not.i, ptr @.str.3, ptr @.str.2
  %6 = zext nneg i32 %4 to i64
  %7 = tail call noundef nonnull align 8 dereferenceable(8) ptr @_ZSt16__ostream_insertIcSt11char_traitsIcEERSt13basic_ostreamIT_T0_ES6_PKS3_l(ptr noundef nonnull align 8 dereferenceable(8) %0, ptr noundef nonnull %5, i64 noundef %6)
  %8 = lshr i32 %.sroa.0.0.copyload.i, 1
  %9 = zext nneg i32 %8 to i64
  %10 = tail call noundef nonnull align 8 dereferenceable(8) ptr @_ZNSo9_M_insertImEERSoT_(ptr noundef nonnull align 8 dereferenceable(8) %0, i64 noundef %9)
  %11 = tail call noundef nonnull align 8 dereferenceable(8) ptr @_ZSt16__ostream_insertIcSt11char_traitsIcEERSt13basic_ostreamIT_T0_ES6_PKS3_l(ptr noundef nonnull align 8 dereferenceable(8) %0, ptr noundef nonnull @.str, i64 noundef 4)
  br label %12

12:                                               ; preds = %_ZN3satlsERSoNS_7literalE.exit, %2
  %13 = load ptr, ptr %1, align 8, !tbaa !13
  %14 = getelementptr inbounds nuw i8, ptr %13, i64 128
  %15 = load ptr, ptr %14, align 8
  %16 = tail call noundef nonnull align 8 dereferenceable(8) ptr %15(ptr noundef nonnull align 8 dereferenceable(64) %1, ptr noundef nonnull align 8 dereferenceable(8) %0)
  ret ptr %16
}